target datalayout = "e-m:e-p270:32:32-p271:32:32-p272:64:64-i64:64-i128:128-f80:128-n8:16:32:64-S128"
target triple = "x86_64-unknown-linux-gnu"

%"class.v8::IndirectHandleBase" = type { ptr }
%"class.v8::Global" = type { %"class.v8::PersistentBase" }
%"class.v8::PersistentBase" = type { %"class.v8::IndirectHandleBase" }
%"class.v8::Global.0" = type { %"class.v8::PersistentBase.1" }
%"class.v8::PersistentBase.1" = type { %"class.v8::IndirectHandleBase" }
%"class.v8impl::RefTracker" = type { ptr, ptr, ptr }
%"class.std::unordered_set" = type { %"class.std::_Hashtable" }
%"class.std::_Hashtable" = type { ptr, i64, %"struct.std::__detail::_Hash_node_base", i64, %"struct.std::__detail::_Prime_rehash_policy", ptr }
%"struct.std::__detail::_Hash_node_base" = type { ptr }
%"struct.std::__detail::_Prime_rehash_policy" = type { float, i64 }
%struct.napi_extended_error_info = type { ptr, ptr, i32, i32 }
%struct.napi_env__ = type <{ ptr, ptr, %"class.v8::Global", %"class.v8::Global.0", %"class.v8impl::RefTracker", %"class.v8impl::RefTracker", %"class.std::unordered_set", %struct.napi_extended_error_info, i32, i32, i32, [4 x i8], ptr, i32, i8, [3 x i8] }>
%class.anon.365 = type { i8 }

; Function Attrs: mustprogress nounwind uwtable
define linkonce_odr dso_local void @_ZN10napi_env__5UnrefEv(ptr noundef nonnull align 8 dereferenceable(189) %this) #4 comdat align 2 {
entry:
  %this.addr = alloca ptr, align 8
  store ptr %this, ptr %this.addr, align 8
  %this1 = load ptr, ptr %this.addr, align 8
  %refs = getelementptr inbounds %struct.napi_env__, ptr %this1, i32 0, i32 10
  %0 = load i32, ptr %refs, align 8
  %dec = add nsw i32 %0, -1
  store i32 %dec, ptr %refs, align 8
  %cmp = icmp eq i32 %dec, 0
  br i1 %cmp, label %if.then, label %if.end

if.then:                                          ; preds = %entry
  %vtable = load ptr, ptr %this1, align 8
  %vfn = getelementptr inbounds ptr, ptr %vtable, i64 4
  %1 = load ptr, ptr %vfn, align 8
  call void %1(ptr noundef nonnull align 8 dereferenceable(189) %this1)
  br label %if.end

if.end:                                           ; preds = %if.then, %entry
  ret void
}

; Function Attrs: mustprogress nounwind uwtable
define internal void @_ZZN6v8impl12_GLOBAL__N_16NewEnvEN2v85LocalINS1_7ContextEEERKNSt7__cxx1112basic_stringIcSt11char_traitsIcESaIcEEEiENKUlPvE_clESD_(ptr noundef nonnull align 1 dereferenceable(1) %this, ptr noundef %arg) #4 align 2 {
entry:
  %this.addr = alloca ptr, align 8
  %arg.addr = alloca ptr, align 8
  store ptr %this, ptr %this.addr, align 8
  store ptr %arg, ptr %arg.addr, align 8
  %0 = load ptr, ptr %arg.addr, align 8
  call void @_ZN10napi_env__5UnrefEv(ptr noundef nonnull align 8 dereferenceable(189) %0)
  ret void
}

; Function Attrs: mustprogress nounwind uwtable
define internal void @_ZZN6v8impl12_GLOBAL__N_16NewEnvEN2v85LocalINS1_7ContextEEERKNSt7__cxx1112basic_stringIcSt11char_traitsIcESaIcEEEiENUlPvE_8__invokeESD_(ptr noundef %arg) #4 align 2 {
entry:
  %arg.addr = alloca ptr, align 8
  %unused.capture = alloca %class.anon.365, align 1
  store ptr %arg, ptr %arg.addr, align 8
  %0 = load ptr, ptr %arg.addr, align 8
  call void @_ZZN6v8impl12_GLOBAL__N_16NewEnvEN2v85LocalINS1_7ContextEEERKNSt7__cxx1112basic_stringIcSt11char_traitsIcESaIcEEEiENKUlPvE_clESD_(ptr noundef nonnull align 1 dereferenceable(1) %unused.capture, ptr noundef %0)
  ret void
}