; Function Attrs: mustprogress nounwind uwtable
define internal void @_ZZN6v8impl12_GLOBAL__N_16NewEnvEN2v85LocalINS1_7ContextEEERKNSt7__cxx1112basic_stringIcSt11char_traitsIcESaIcEEEiENUlPvE_8__invokeESD_(ptr noundef %arg) #3 align 2 {
entry:
  %refs.i.i = getelementptr inbounds i8, ptr %arg, i64 168
  %0 = load i32, ptr %refs.i.i, align 8
  %dec.i.i = add nsw i32 %0, -1
  store i32 %dec.i.i, ptr %refs.i.i, align 8
  %cmp.i.i = icmp eq i32 %dec.i.i, 0
  br i1 %cmp.i.i, label %if.then.i.i, label %_ZZN6v8impl12_GLOBAL__N_16NewEnvEN2v85LocalINS1_7ContextEEERKNSt7__cxx1112basic_stringIcSt11char_traitsIcESaIcEEEiENKUlPvE_clESD_.exit

if.then.i.i:                                      ; preds = %entry
  %vtable.i.i = load ptr, ptr %arg, align 8
  %vfn.i.i = getelementptr inbounds i8, ptr %vtable.i.i, i64 32
  %1 = load ptr, ptr %vfn.i.i, align 8
  tail call void %1(ptr noundef nonnull align 8 dereferenceable(189) %arg) #21
  br label %_ZZN6v8impl12_GLOBAL__N_16NewEnvEN2v85LocalINS1_7ContextEEERKNSt7__cxx1112basic_stringIcSt11char_traitsIcESaIcEEEiENKUlPvE_clESD_.exit

_ZZN6v8impl12_GLOBAL__N_16NewEnvEN2v85LocalINS1_7ContextEEERKNSt7__cxx1112basic_stringIcSt11char_traitsIcESaIcEEEiENKUlPvE_clESD_.exit: ; preds = %entry, %if.then.i.i
  ret void
}